; Function Attrs: nounwind sspstrong uwtable
define internal noundef i32 @push_value(i64 %0, i64 noundef %1, i64 noundef %2) #4 {
  %4 = inttoptr i64 %2 to ptr
  %5 = load i64, ptr %4, align 8, !tbaa !7
  %6 = and i64 %5, 8192
  %.not.i.i = icmp eq i64 %6, 0
  br i1 %.not.i.i, label %10, label %7

7:                                                ; preds = %3
  %8 = lshr i64 %5, 15
  %9 = and i64 %8, 127
  br label %rb_array_len.exit.i

10:                                               ; preds = %3
  %11 = getelementptr inbounds nuw i8, ptr %4, i64 16
  %12 = load i64, ptr %11, align 8, !tbaa !12
  br label %rb_array_len.exit.i

rb_array_len.exit.i:                              ; preds = %10, %7
  %.0.i.i = phi i64 [ %9, %7 ], [ %12, %10 ]
  %13 = tail call fastcc i64 @ary_ensure_room_for_push(i64 noundef %2, i64 noundef 1)
  %14 = load i64, ptr %4, align 8, !tbaa !7
  %15 = and i64 %14, 8192
  %.not.i.i.i = icmp eq i64 %15, 0
  br i1 %.not.i.i.i, label %18, label %16

16:                                               ; preds = %rb_array_len.exit.i
  %17 = getelementptr inbounds nuw i8, ptr %4, i64 16
  br label %rb_ary_ptr_use_start.exit.i

18:                                               ; preds = %rb_array_len.exit.i
  %19 = getelementptr inbounds nuw i8, ptr %4, i64 32
  %20 = load ptr, ptr %19, align 8, !tbaa !12
  br label %rb_ary_ptr_use_start.exit.i

rb_ary_ptr_use_start.exit.i:                      ; preds = %18, %16
  %.0.i.i.i = phi ptr [ %17, %16 ], [ %20, %18 ]
  %21 = getelementptr i64, ptr %.0.i.i.i, i64 %.0.i.i
  store i64 %1, ptr %21, align 8, !tbaa !13
  %22 = icmp eq i64 %1, 0
  %23 = and i64 %1, 7
  %24 = icmp ne i64 %23, 0
  %25 = or i1 %22, %24
  br i1 %25, label %rb_obj_write.exit.i, label %26

26:                                               ; preds = %rb_ary_ptr_use_start.exit.i
  tail call void @rb_gc_writebarrier(i64 noundef %13, i64 noundef %1) #24
  br label %rb_obj_write.exit.i

rb_obj_write.exit.i:                              ; preds = %26, %rb_ary_ptr_use_start.exit.i
  %27 = load i64, ptr %4, align 8, !tbaa !7
  %28 = and i64 %27, 8192
  %.not.i = icmp eq i64 %28, 0
  br i1 %.not.i, label %34, label %29

29:                                               ; preds = %rb_obj_write.exit.i
  %30 = and i64 %27, -4161537
  %31 = shl i64 %.0.i.i, 15
  %32 = add i64 %31, 32768
  %33 = or i64 %30, %32
  store i64 %33, ptr %4, align 8, !tbaa !7
  br label %rb_ary_push.exit

34:                                               ; preds = %rb_obj_write.exit.i
  %35 = add i64 %.0.i.i, 1
  %36 = getelementptr inbounds nuw i8, ptr %4, i64 16
  store i64 %35, ptr %36, align 8, !tbaa !12
  br label %rb_ary_push.exit

rb_ary_push.exit:                                 ; preds = %29, %34
  ret i32 0
}